; Function Attrs: mustprogress nounwind uwtable
define internal void @_ZN5folly12_GLOBAL__N_116DeadlineExecutor16keepAliveReleaseEv(ptr noundef nonnull align 8 dereferenceable(32) %0) unnamed_addr #6 align 2 personality ptr @__gxx_personality_v0 {
  %2 = getelementptr inbounds nuw i8, ptr %0, i64 8
  %3 = atomicrmw sub ptr %2, i64 1 acq_rel, align 8
  %.not = icmp eq i64 %3, 1
  br i1 %.not, label %4, label %8

4:                                                ; preds = %1
  %5 = load ptr, ptr %0, align 8, !tbaa !7
  %6 = getelementptr inbounds nuw i8, ptr %5, i64 8
  %7 = load ptr, ptr %6, align 8
  tail call void %7(ptr noundef nonnull align 8 dereferenceable(32) %0) #12
  br label %8

8:                                                ; preds = %4, %1
  ret void
}